target datalayout = "e-m:e-p270:32:32-p271:32:32-p272:64:64-i64:64-i128:128-f80:128-n8:16:32:64-S128"
target triple = "x86_64-pc-linux-gnu"

@proto_register_fix.ett = internal global [4 x ptr] [ptr @ett_fix, ptr @ett_unknown, ptr @ett_badfield, ptr @ett_checksum], align 16
@.str.21 = private unnamed_addr constant [40 x i8] c"Financial Information eXchange Protocol\00", align 1
@.str.22 = private unnamed_addr constant [4 x i8] c"FIX\00", align 1
@.str.23 = private unnamed_addr constant [4 x i8] c"fix\00", align 1
@proto_fix = internal global i32 0, align 4
@fix_handle = internal global ptr null, align 8
@.str.24 = private unnamed_addr constant [10 x i8] c"desegment\00", align 1
@.str.25 = private unnamed_addr constant [55 x i8] c"Reassemble FIX messages spanning multiple TCP segments\00", align 1
@.str.26 = private unnamed_addr constant [204 x i8] c"Whether the FIX dissector should reassemble messages spanning multiple TCP segments. To use this option, you must also enable \22Allow subdissectors to reassemble TCP streams\22 in the TCP protocol settings.\00", align 1
@fix_desegment = internal global i8 1, align 1

; Function Attrs: null_pointer_is_valid sspstrong uwtable
define hidden void @proto_register_fix() #0 {
  %1 = alloca ptr, align 8
  %2 = alloca ptr, align 8
  call void @llvm.lifetime.start.p0(i64 8, ptr %1) #7
  call void @llvm.lifetime.start.p0(i64 8, ptr %2) #7
  call void @register_init_routine(ptr noundef @dissect_fix_init)
  %3 = call i32 @proto_register_protocol(ptr noundef @.str.21, ptr noundef @.str.22, ptr noundef @.str.23)
  store i32 %3, ptr @proto_fix, align 4
  %4 = load i32, ptr @proto_fix, align 4
  %5 = call ptr @register_dissector(ptr noundef @.str.23, ptr noundef @dissect_fix, i32 noundef %4)
  store ptr %5, ptr @fix_handle, align 8
  %6 = load i32, ptr @proto_fix, align 4
  call void @proto_register_field_array(i32 noundef %6, ptr noundef @proto_register_fix.hf, i32 noundef 5)
  %7 = load i32, ptr @proto_fix, align 4
  call void @proto_register_field_array(i32 noundef %7, ptr noundef @hf_FIX, i32 noundef 1610)
  call void @proto_register_subtree_array(ptr noundef @proto_register_fix.ett, i32 noundef 4)
  %8 = load i32, ptr @proto_fix, align 4
  %9 = call ptr @expert_register_protocol(i32 noundef %8)
  store ptr %9, ptr %2, align 8
  %10 = load ptr, ptr %2, align 8
  call void @expert_register_field_array(ptr noundef %10, ptr noundef @proto_register_fix.ei, i32 noundef 4)
  %11 = load i32, ptr @proto_fix, align 4
  %12 = call ptr @prefs_register_protocol(i32 noundef %11, ptr noundef null)
  store ptr %12, ptr %1, align 8
  %13 = load ptr, ptr %1, align 8
  call void @prefs_register_bool_preference(ptr noundef %13, ptr noundef @.str.24, ptr noundef @.str.25, ptr noundef @.str.26, ptr noundef @fix_desegment)
  call void @llvm.lifetime.end.p0(i64 8, ptr %2) #7
  call void @llvm.lifetime.end.p0(i64 8, ptr %1) #7
  ret void
}