; Function Attrs: null_pointer_is_valid sspstrong uwtable
define hidden void @proto_register_fix() local_unnamed_addr #0 {
  tail call void @register_init_routine(ptr noundef nonnull @dissect_fix_init)
  %1 = tail call i32 @proto_register_protocol(ptr noundef nonnull @.str.21, ptr noundef nonnull @.str.22, ptr noundef nonnull @.str.23)
  store i32 %1, ptr @proto_fix, align 4
  %2 = tail call ptr @register_dissector(ptr noundef nonnull @.str.23, ptr noundef nonnull @dissect_fix, i32 noundef %1)
  store ptr %2, ptr @fix_handle, align 8
  %3 = load i32, ptr @proto_fix, align 4
  tail call void @proto_register_field_array(i32 noundef %3, ptr noundef nonnull @proto_register_fix.hf, i32 noundef 5)
  %4 = load i32, ptr @proto_fix, align 4
  tail call void @proto_register_field_array(i32 noundef %4, ptr noundef nonnull @hf_FIX, i32 noundef 1610)
  tail call void @proto_register_subtree_array(ptr noundef nonnull @proto_register_fix.ett, i32 noundef 4)
  %5 = load i32, ptr @proto_fix, align 4
  %6 = tail call ptr @expert_register_protocol(i32 noundef %5)
  tail call void @expert_register_field_array(ptr noundef %6, ptr noundef nonnull @proto_register_fix.ei, i32 noundef 4)
  %7 = load i32, ptr @proto_fix, align 4
  %8 = tail call ptr @prefs_register_protocol(i32 noundef %7, ptr noundef null)
  tail call void @prefs_register_bool_preference(ptr noundef %8, ptr noundef nonnull @.str.24, ptr noundef nonnull @.str.25, ptr noundef nonnull @.str.26, ptr noundef nonnull @fix_desegment)
  ret void
}